target datalayout = "e-m:e-p270:32:32-p271:32:32-p272:64:64-i64:64-i128:128-f80:128-n8:16:32:64-S128"
target triple = "x86_64-pc-linux-gnu"

%"class.std::basic_string_view" = type { i64, ptr }
%"class.icu_77::ByteSink" = type { ptr }
%"class.icu_77::CheckedArrayByteSink" = type <{ %"class.icu_77::ByteSink", ptr, i32, i32, i32, i8, [3 x i8] }>
%class.anon.24 = type { ptr }

; Function Attrs: noinline noreturn nounwind uwtable
define linkonce_odr hidden void @__clang_call_terminate(ptr noundef %0) #4 comdat {
  %2 = call ptr @__cxa_begin_catch(ptr %0) #11
  call void @_ZSt9terminatev() #13
  unreachable
}

; Function Attrs: mustprogress nounwind uwtable
define linkonce_odr noundef i64 @_ZNSt11char_traitsIcE6lengthEPKc(ptr noundef %0) #0 comdat align 2 {
  %2 = alloca ptr, align 8
  store ptr %0, ptr %2, align 8, !tbaa !17
  %3 = load ptr, ptr %2, align 8, !tbaa !17
  %4 = call i64 @strlen(ptr noundef %3) #11
  ret i64 %4
}

; Function Attrs: mustprogress uwtable
define void @_Z18ulocimp_getName_77St17basic_string_viewIcSt11char_traitsIcEERN6icu_778ByteSinkER10UErrorCode(i64 %0, ptr %1, ptr noundef nonnull align 8 dereferenceable(8) %2, ptr noundef nonnull align 4 dereferenceable(4) %3) #1 {
  %5 = alloca %"class.std::basic_string_view", align 8
  %6 = alloca ptr, align 8
  %7 = alloca ptr, align 8
  %8 = alloca %"class.std::basic_string_view", align 8
  %9 = getelementptr inbounds nuw { i64, ptr }, ptr %5, i32 0, i32 0
  store i64 %0, ptr %9, align 8
  %10 = getelementptr inbounds nuw { i64, ptr }, ptr %5, i32 0, i32 1
  store ptr %1, ptr %10, align 8
  store ptr %2, ptr %6, align 8, !tbaa !33
  store ptr %3, ptr %7, align 8, !tbaa !22
  call void @llvm.memcpy.p0.p0.i64(ptr align 8 %8, ptr align 8 %5, i64 16, i1 false), !tbaa.struct !42
  %11 = load ptr, ptr %6, align 8, !tbaa !33
  %12 = load ptr, ptr %7, align 8, !tbaa !22
  %13 = getelementptr inbounds nuw { i64, ptr }, ptr %8, i32 0, i32 0
  %14 = load i64, ptr %13, align 8
  %15 = getelementptr inbounds nuw { i64, ptr }, ptr %8, i32 0, i32 1
  %16 = load ptr, ptr %15, align 8
  call void @_ZN12_GLOBAL__N_113_canonicalizeESt17basic_string_viewIcSt11char_traitsIcEERN6icu_778ByteSinkEjR10UErrorCode(i64 %14, ptr %16, ptr noundef nonnull align 8 dereferenceable(8) %11, i32 noundef 0, ptr noundef nonnull align 4 dereferenceable(4) %12)
  ret void
}

; Function Attrs: mustprogress nounwind uwtable
define linkonce_odr void @_ZNSt17basic_string_viewIcSt11char_traitsIcEEC2EPKc(ptr noundef nonnull align 8 dereferenceable(16) %0, ptr noundef nonnull %1) unnamed_addr #0 comdat align 2 personality ptr @__gxx_personality_v0 {
  %3 = alloca ptr, align 8
  %4 = alloca ptr, align 8
  store ptr %0, ptr %3, align 8, !tbaa !23
  store ptr %1, ptr %4, align 8, !tbaa !17
  %5 = load ptr, ptr %3, align 8
  %6 = getelementptr inbounds nuw %"class.std::basic_string_view", ptr %5, i32 0, i32 0
  %7 = load ptr, ptr %4, align 8, !tbaa !17
  %8 = invoke noundef i64 @_ZNSt11char_traitsIcE6lengthEPKc(ptr noundef %7)
          to label %9 unwind label %12

9:                                                ; preds = %2
  store i64 %8, ptr %6, align 8, !tbaa !26
  %10 = getelementptr inbounds nuw %"class.std::basic_string_view", ptr %5, i32 0, i32 1
  %11 = load ptr, ptr %4, align 8, !tbaa !17
  store ptr %11, ptr %10, align 8, !tbaa !28
  ret void

12:                                               ; preds = %2
  %13 = landingpad { ptr, i32 }
          catch ptr null
  %14 = extractvalue { ptr, i32 } %13, 0
  call void @__clang_call_terminate(ptr %14) #13
  unreachable
}

; Function Attrs: mustprogress nounwind uwtable
define linkonce_odr noundef signext i8 @_ZNK6icu_7720CheckedArrayByteSink10OverflowedEv(ptr noundef nonnull align 8 dereferenceable(29) %0) #0 comdat align 2 {
  %2 = alloca ptr, align 8
  store ptr %0, ptr %2, align 8, !tbaa !188
  %3 = load ptr, ptr %2, align 8
  %4 = getelementptr inbounds nuw %"class.icu_77::CheckedArrayByteSink", ptr %3, i32 0, i32 5
  %5 = load i8, ptr %4, align 4, !tbaa !193
  ret i8 %5
}

; Function Attrs: mustprogress nounwind uwtable
define linkonce_odr noundef i32 @_ZNK6icu_7720CheckedArrayByteSink21NumberOfBytesAppendedEv(ptr noundef nonnull align 8 dereferenceable(29) %0) #0 comdat align 2 {
  %2 = alloca ptr, align 8
  store ptr %0, ptr %2, align 8, !tbaa !188
  %3 = load ptr, ptr %2, align 8
  %4 = getelementptr inbounds nuw %"class.icu_77::CheckedArrayByteSink", ptr %3, i32 0, i32 4
  %5 = load i32, ptr %4, align 8, !tbaa !190
  ret i32 %5
}

; Function Attrs: inlinehint mustprogress uwtable
define internal void @"_ZZ15uloc_getName_77ENK3$_0clERN6icu_778ByteSinkER10UErrorCode"(ptr noundef nonnull align 8 dereferenceable(8) %0, ptr noundef nonnull align 8 dereferenceable(8) %1, ptr noundef nonnull align 4 dereferenceable(4) %2) #3 align 2 {
  %4 = alloca ptr, align 8
  %5 = alloca ptr, align 8
  %6 = alloca ptr, align 8
  %7 = alloca %"class.std::basic_string_view", align 8
  store ptr %0, ptr %4, align 8, !tbaa !22
  store ptr %1, ptr %5, align 8, !tbaa !33
  store ptr %2, ptr %6, align 8, !tbaa !22
  %8 = load ptr, ptr %4, align 8
  %9 = getelementptr inbounds nuw %class.anon.24, ptr %8, i32 0, i32 0
  %10 = load ptr, ptr %9, align 8, !tbaa !219
  %11 = load ptr, ptr %10, align 8, !tbaa !17
  call void @_ZNSt17basic_string_viewIcSt11char_traitsIcEEC2EPKc(ptr noundef nonnull align 8 dereferenceable(16) %7, ptr noundef %11) #11
  %12 = load ptr, ptr %5, align 8, !tbaa !33
  %13 = load ptr, ptr %6, align 8, !tbaa !22
  %14 = getelementptr inbounds nuw { i64, ptr }, ptr %7, i32 0, i32 0
  %15 = load i64, ptr %14, align 8
  %16 = getelementptr inbounds nuw { i64, ptr }, ptr %7, i32 0, i32 1
  %17 = load ptr, ptr %16, align 8
  call void @_Z18ulocimp_getName_77St17basic_string_viewIcSt11char_traitsIcEERN6icu_778ByteSinkER10UErrorCode(i64 %15, ptr %17, ptr noundef nonnull align 8 dereferenceable(8) %12, ptr noundef nonnull align 4 dereferenceable(4) %13)
  ret void
}

; Function Attrs: inlinehint mustprogress nounwind uwtable
define internal noundef signext i8 @_ZL9U_FAILURE10UErrorCode(i32 noundef %0) #2 {
  %2 = alloca i32, align 4
  store i32 %0, ptr %2, align 4, !tbaa !15
  %3 = load i32, ptr %2, align 4, !tbaa !15
  %4 = icmp sgt i32 %3, 0
  %5 = zext i1 %4 to i8
  ret i8 %5
}

; Function Attrs: mustprogress uwtable
define internal noundef i32 @"_ZN6icu_7712ByteSinkUtil28viaByteSinkToTerminatedCharsIZ15uloc_getName_77E3$_0vEEiPciOT_R10UErrorCode"(ptr noundef %0, i32 noundef %1, ptr noundef nonnull align 8 dereferenceable(8) %2, ptr noundef nonnull align 4 dereferenceable(4) %3) #1 align 2 personality ptr @__gxx_personality_v0 {
  %5 = alloca i32, align 4
  %6 = alloca ptr, align 8
  %7 = alloca i32, align 4
  %8 = alloca ptr, align 8
  %9 = alloca ptr, align 8
  %10 = alloca %"class.icu_77::CheckedArrayByteSink", align 8
  %11 = alloca ptr, align 8
  %12 = alloca i32, align 4
  %13 = alloca i32, align 4
  %14 = alloca i32, align 4
  store ptr %0, ptr %6, align 8, !tbaa !17
  store i32 %1, ptr %7, align 4, !tbaa !14
  store ptr %2, ptr %8, align 8, !tbaa !22
  store ptr %3, ptr %9, align 8, !tbaa !22
  %15 = load ptr, ptr %9, align 8, !tbaa !22
  %16 = load i32, ptr %15, align 4, !tbaa !15
  %17 = call noundef signext i8 @_ZL9U_FAILURE10UErrorCode(i32 noundef %16)
  %18 = icmp ne i8 %17, 0
  br i1 %18, label %19, label %20

19:                                               ; preds = %4
  store i32 0, ptr %5, align 4
  br label %56

20:                                               ; preds = %4
  call void @llvm.lifetime.start.p0(i64 32, ptr %10) #11
  %21 = load ptr, ptr %6, align 8, !tbaa !17
  %22 = load i32, ptr %7, align 4, !tbaa !14
  call void @_ZN6icu_7720CheckedArrayByteSinkC1EPci(ptr noundef nonnull align 8 dereferenceable(29) %10, ptr noundef %21, i32 noundef %22)
  %23 = load ptr, ptr %8, align 8, !tbaa !22
  %24 = load ptr, ptr %9, align 8, !tbaa !22
  invoke void @"_ZZ15uloc_getName_77ENK3$_0clERN6icu_778ByteSinkER10UErrorCode"(ptr noundef nonnull align 8 dereferenceable(8) %23, ptr noundef nonnull align 8 dereferenceable(8) %10, ptr noundef nonnull align 4 dereferenceable(4) %24)
          to label %25 unwind label %31

25:                                               ; preds = %20
  %26 = load ptr, ptr %9, align 8, !tbaa !22
  %27 = load i32, ptr %26, align 4, !tbaa !15
  %28 = call noundef signext i8 @_ZL9U_FAILURE10UErrorCode(i32 noundef %27)
  %29 = icmp ne i8 %28, 0
  br i1 %29, label %30, label %35

30:                                               ; preds = %25
  store i32 0, ptr %5, align 4
  store i32 1, ptr %13, align 4
  br label %54

31:                                               ; preds = %20
  %32 = landingpad { ptr, i32 }
          cleanup
  %33 = extractvalue { ptr, i32 } %32, 0
  store ptr %33, ptr %11, align 8
  %34 = extractvalue { ptr, i32 } %32, 1
  store i32 %34, ptr %12, align 4
  br label %55

35:                                               ; preds = %25
  call void @llvm.lifetime.start.p0(i64 4, ptr %14) #11
  %36 = call noundef i32 @_ZNK6icu_7720CheckedArrayByteSink21NumberOfBytesAppendedEv(ptr noundef nonnull align 8 dereferenceable(29) %10)
  store i32 %36, ptr %14, align 4, !tbaa !14
  %37 = call noundef signext i8 @_ZNK6icu_7720CheckedArrayByteSink10OverflowedEv(ptr noundef nonnull align 8 dereferenceable(29) %10)
  %38 = icmp ne i8 %37, 0
  br i1 %38, label %39, label %42

39:                                               ; preds = %35
  %40 = load ptr, ptr %9, align 8, !tbaa !22
  store i32 15, ptr %40, align 4, !tbaa !15
  %41 = load i32, ptr %14, align 4, !tbaa !14
  store i32 %41, ptr %5, align 4
  store i32 1, ptr %13, align 4
  br label %53

42:                                               ; preds = %35
  %43 = load ptr, ptr %6, align 8, !tbaa !17
  %44 = load i32, ptr %7, align 4, !tbaa !14
  %45 = load i32, ptr %14, align 4, !tbaa !14
  %46 = load ptr, ptr %9, align 8, !tbaa !22
  %47 = invoke i32 @u_terminateChars_77(ptr noundef %43, i32 noundef %44, i32 noundef %45, ptr noundef %46)
          to label %48 unwind label %49

48:                                               ; preds = %42
  store i32 %47, ptr %5, align 4
  store i32 1, ptr %13, align 4
  br label %53

49:                                               ; preds = %42
  %50 = landingpad { ptr, i32 }
          cleanup
  %51 = extractvalue { ptr, i32 } %50, 0
  store ptr %51, ptr %11, align 8
  %52 = extractvalue { ptr, i32 } %50, 1
  store i32 %52, ptr %12, align 4
  call void @llvm.lifetime.end.p0(i64 4, ptr %14) #11
  br label %55

53:                                               ; preds = %48, %39
  call void @llvm.lifetime.end.p0(i64 4, ptr %14) #11
  br label %54

54:                                               ; preds = %53, %30
  call void @_ZN6icu_7720CheckedArrayByteSinkD1Ev(ptr noundef nonnull align 8 dereferenceable(29) %10) #11
  call void @llvm.lifetime.end.p0(i64 32, ptr %10) #11
  br label %56

55:                                               ; preds = %49, %31
  call void @_ZN6icu_7720CheckedArrayByteSinkD1Ev(ptr noundef nonnull align 8 dereferenceable(29) %10) #11
  call void @llvm.lifetime.end.p0(i64 32, ptr %10) #11
  br label %58

56:                                               ; preds = %54, %19
  %57 = load i32, ptr %5, align 4
  ret i32 %57

58:                                               ; preds = %55
  %59 = load ptr, ptr %11, align 8
  %60 = load i32, ptr %12, align 4
  %61 = insertvalue { ptr, i32 } poison, ptr %59, 0
  %62 = insertvalue { ptr, i32 } %61, i32 %60, 1
  resume { ptr, i32 } %62
}

; Function Attrs: mustprogress uwtable
define ptr @uloc_getDefault_77() #1 {
  %1 = call ptr @locale_get_default_77()
  ret ptr %1
}

; Function Attrs: mustprogress uwtable
define i32 @uloc_getName_77(ptr noundef %0, ptr noundef %1, i32 noundef %2, ptr noundef %3) #1 {
  %5 = alloca ptr, align 8
  %6 = alloca ptr, align 8
  %7 = alloca i32, align 4
  %8 = alloca ptr, align 8
  %9 = alloca %class.anon.24, align 8
  store ptr %0, ptr %5, align 8, !tbaa !17
  store ptr %1, ptr %6, align 8, !tbaa !17
  store i32 %2, ptr %7, align 4, !tbaa !14
  store ptr %3, ptr %8, align 8, !tbaa !22
  %10 = load ptr, ptr %5, align 8, !tbaa !17
  %11 = icmp eq ptr %10, null
  br i1 %11, label %12, label %14

12:                                               ; preds = %4
  %13 = call ptr @uloc_getDefault_77()
  store ptr %13, ptr %5, align 8, !tbaa !17
  br label %14

14:                                               ; preds = %12, %4
  %15 = load ptr, ptr %6, align 8, !tbaa !17
  %16 = load i32, ptr %7, align 4, !tbaa !14
  call void @llvm.lifetime.start.p0(i64 8, ptr %9) #11
  %17 = getelementptr inbounds nuw %class.anon.24, ptr %9, i32 0, i32 0
  store ptr %5, ptr %17, align 8, !tbaa !52
  %18 = load ptr, ptr %8, align 8, !tbaa !22
  %19 = call noundef i32 @"_ZN6icu_7712ByteSinkUtil28viaByteSinkToTerminatedCharsIZ15uloc_getName_77E3$_0vEEiPciOT_R10UErrorCode"(ptr noundef %15, i32 noundef %16, ptr noundef nonnull align 8 dereferenceable(8) %9, ptr noundef nonnull align 4 dereferenceable(4) %18)
  call void @llvm.lifetime.end.p0(i64 8, ptr %9) #11
  ret i32 %19
}